target datalayout = "e-m:e-p270:32:32-p271:32:32-p272:64:64-i64:64-i128:128-f80:128-n8:16:32:64-S128"
target triple = "x86_64-pc-linux-gnu"

%struct.prefix_ctx_st = type { ptr, i32, i32 }

@.str.4 = private unnamed_addr constant [34 x i8] c"../openssl/crypto/bio/bf_prefix.c\00", align 1

; Function Attrs: nounwind uwtable
define internal i64 @prefix_ctrl(ptr noundef %0, i32 noundef %1, i64 noundef %2, ptr noundef %3) #0 {
  %5 = alloca i64, align 8
  %6 = alloca ptr, align 8
  %7 = alloca i32, align 4
  %8 = alloca i64, align 8
  %9 = alloca ptr, align 8
  %10 = alloca i64, align 8
  %11 = alloca ptr, align 8
  %12 = alloca i32, align 4
  store ptr %0, ptr %6, align 8, !tbaa !3
  store i32 %1, ptr %7, align 4, !tbaa !26
  store i64 %2, ptr %8, align 8, !tbaa !10
  store ptr %3, ptr %9, align 8, !tbaa !27
  call void @llvm.lifetime.start.p0(i64 8, ptr %10) #4
  store i64 0, ptr %10, align 8, !tbaa !10
  call void @llvm.lifetime.start.p0(i64 8, ptr %11) #4
  %13 = load ptr, ptr %6, align 8, !tbaa !3
  %14 = icmp eq ptr %13, null
  br i1 %14, label %19, label %15

15:                                               ; preds = %4
  %16 = load ptr, ptr %6, align 8, !tbaa !3
  %17 = call ptr @BIO_get_data(ptr noundef %16)
  store ptr %17, ptr %11, align 8, !tbaa !14
  %18 = icmp eq ptr %17, null
  br i1 %18, label %19, label %20

19:                                               ; preds = %15, %4
  store i64 -1, ptr %5, align 8
  store i32 1, ptr %12, align 4
  br label %76

20:                                               ; preds = %15
  %21 = load i32, ptr %7, align 4, !tbaa !26
  switch i32 %21, label %57 [
    i32 79, label %22
    i32 80, label %43
    i32 81, label %52
  ]

22:                                               ; preds = %20
  %23 = load ptr, ptr %11, align 8, !tbaa !14
  %24 = getelementptr inbounds nuw %struct.prefix_ctx_st, ptr %23, i32 0, i32 0
  %25 = load ptr, ptr %24, align 8, !tbaa !16
  call void @CRYPTO_free(ptr noundef %25, ptr noundef @.str.4, i32 noundef 161)
  %26 = load ptr, ptr %9, align 8, !tbaa !27
  %27 = icmp eq ptr %26, null
  br i1 %27, label %28, label %31

28:                                               ; preds = %22
  %29 = load ptr, ptr %11, align 8, !tbaa !14
  %30 = getelementptr inbounds nuw %struct.prefix_ctx_st, ptr %29, i32 0, i32 0
  store ptr null, ptr %30, align 8, !tbaa !16
  store i64 1, ptr %10, align 8, !tbaa !10
  br label %42

31:                                               ; preds = %22
  %32 = load ptr, ptr %9, align 8, !tbaa !27
  %33 = call noalias ptr @CRYPTO_strdup(ptr noundef %32, ptr noundef @.str.4, i32 noundef 166)
  %34 = load ptr, ptr %11, align 8, !tbaa !14
  %35 = getelementptr inbounds nuw %struct.prefix_ctx_st, ptr %34, i32 0, i32 0
  store ptr %33, ptr %35, align 8, !tbaa !16
  %36 = load ptr, ptr %11, align 8, !tbaa !14
  %37 = getelementptr inbounds nuw %struct.prefix_ctx_st, ptr %36, i32 0, i32 0
  %38 = load ptr, ptr %37, align 8, !tbaa !16
  %39 = icmp ne ptr %38, null
  %40 = zext i1 %39 to i32
  %41 = sext i32 %40 to i64
  store i64 %41, ptr %10, align 8, !tbaa !10
  br label %42

42:                                               ; preds = %31, %28
  br label %74

43:                                               ; preds = %20
  %44 = load i64, ptr %8, align 8, !tbaa !10
  %45 = icmp sge i64 %44, 0
  br i1 %45, label %46, label %51

46:                                               ; preds = %43
  %47 = load i64, ptr %8, align 8, !tbaa !10
  %48 = trunc i64 %47 to i32
  %49 = load ptr, ptr %11, align 8, !tbaa !14
  %50 = getelementptr inbounds nuw %struct.prefix_ctx_st, ptr %49, i32 0, i32 1
  store i32 %48, ptr %50, align 8, !tbaa !20
  store i64 1, ptr %10, align 8, !tbaa !10
  br label %51

51:                                               ; preds = %46, %43
  br label %74

52:                                               ; preds = %20
  %53 = load ptr, ptr %11, align 8, !tbaa !14
  %54 = getelementptr inbounds nuw %struct.prefix_ctx_st, ptr %53, i32 0, i32 1
  %55 = load i32, ptr %54, align 8, !tbaa !20
  %56 = zext i32 %55 to i64
  store i64 %56, ptr %10, align 8, !tbaa !10
  br label %74

57:                                               ; preds = %20
  %58 = load i32, ptr %7, align 4, !tbaa !26
  switch i32 %58, label %62 [
    i32 128, label %59
    i32 1, label %59
  ]

59:                                               ; preds = %57, %57
  %60 = load ptr, ptr %11, align 8, !tbaa !14
  %61 = getelementptr inbounds nuw %struct.prefix_ctx_st, ptr %60, i32 0, i32 2
  store i32 1, ptr %61, align 4, !tbaa !21
  br label %62

62:                                               ; preds = %57, %59
  %63 = load ptr, ptr %6, align 8, !tbaa !3
  %64 = call ptr @BIO_next(ptr noundef %63)
  %65 = icmp ne ptr %64, null
  br i1 %65, label %66, label %73

66:                                               ; preds = %62
  %67 = load ptr, ptr %6, align 8, !tbaa !3
  %68 = call ptr @BIO_next(ptr noundef %67)
  %69 = load i32, ptr %7, align 4, !tbaa !26
  %70 = load i64, ptr %8, align 8, !tbaa !10
  %71 = load ptr, ptr %9, align 8, !tbaa !27
  %72 = call i64 @BIO_ctrl(ptr noundef %68, i32 noundef %69, i64 noundef %70, ptr noundef %71)
  store i64 %72, ptr %10, align 8, !tbaa !10
  br label %73

73:                                               ; preds = %66, %62
  br label %74

74:                                               ; preds = %73, %52, %51, %42
  %75 = load i64, ptr %10, align 8, !tbaa !10
  store i64 %75, ptr %5, align 8
  store i32 1, ptr %12, align 4
  br label %76

76:                                               ; preds = %74, %19
  call void @llvm.lifetime.end.p0(i64 8, ptr %11) #4
  call void @llvm.lifetime.end.p0(i64 8, ptr %10) #4
  %77 = load i64, ptr %5, align 8
  ret i64 %77
}