; Function Attrs: nounwind uwtable
define internal i64 @prefix_ctrl(ptr noundef %0, i32 noundef %1, i64 noundef %2, ptr noundef %3) #1 {
  %5 = icmp eq ptr %0, null
  br i1 %5, label %34, label %6

6:                                                ; preds = %4
  %7 = tail call ptr @BIO_get_data(ptr noundef nonnull %0) #5
  %8 = icmp eq ptr %7, null
  br i1 %8, label %34, label %9

9:                                                ; preds = %6
  switch i32 %1, label %29 [
    i32 79, label %10
    i32 80, label %18
    i32 81, label %23
    i32 128, label %27
    i32 1, label %27
  ]

10:                                               ; preds = %9
  %11 = load ptr, ptr %7, align 8, !tbaa !3
  tail call void @CRYPTO_free(ptr noundef %11, ptr noundef nonnull @.str.4, i32 noundef 161) #5
  %12 = icmp eq ptr %3, null
  br i1 %12, label %13, label %14

13:                                               ; preds = %10
  store ptr null, ptr %7, align 8, !tbaa !3
  br label %34

14:                                               ; preds = %10
  %15 = tail call noalias ptr @CRYPTO_strdup(ptr noundef nonnull %3, ptr noundef nonnull @.str.4, i32 noundef 166) #5
  store ptr %15, ptr %7, align 8, !tbaa !3
  %16 = icmp ne ptr %15, null
  %17 = zext i1 %16 to i64
  br label %34

18:                                               ; preds = %9
  %19 = icmp sgt i64 %2, -1
  br i1 %19, label %20, label %34

20:                                               ; preds = %18
  %21 = trunc i64 %2 to i32
  %22 = getelementptr inbounds nuw i8, ptr %7, i64 8
  store i32 %21, ptr %22, align 8, !tbaa !11
  br label %34

23:                                               ; preds = %9
  %24 = getelementptr inbounds nuw i8, ptr %7, i64 8
  %25 = load i32, ptr %24, align 8, !tbaa !11
  %26 = zext i32 %25 to i64
  br label %34

27:                                               ; preds = %9, %9
  %28 = getelementptr inbounds nuw i8, ptr %7, i64 12
  store i32 1, ptr %28, align 4, !tbaa !12
  br label %29

29:                                               ; preds = %9, %27
  %30 = tail call ptr @BIO_next(ptr noundef nonnull %0) #5
  %.not = icmp eq ptr %30, null
  br i1 %.not, label %34, label %31

31:                                               ; preds = %29
  %32 = tail call ptr @BIO_next(ptr noundef nonnull %0) #5
  %33 = tail call i64 @BIO_ctrl(ptr noundef %32, i32 noundef %1, i64 noundef %2, ptr noundef %3) #5
  br label %34

34:                                               ; preds = %23, %14, %13, %20, %18, %31, %29, %4, %6
  %.0 = phi i64 [ -1, %6 ], [ -1, %4 ], [ %33, %31 ], [ 0, %29 ], [ %26, %23 ], [ 1, %20 ], [ 0, %18 ], [ 1, %13 ], [ %17, %14 ]
  ret i64 %.0
}